; Function Attrs: mustprogress nofree norecurse nosync nounwind null_pointer_is_valid sspstrong willreturn memory(argmem: read) uwtable
define i32 @get_srt_proto_id(ptr noundef readonly captures(address_is_null) %0) local_unnamed_addr #0 {
  %.not = icmp eq ptr %0, null
  br i1 %.not, label %4, label %2

2:                                                ; preds = %1
  %3 = load i32, ptr %0, align 8
  br label %4

4:                                                ; preds = %1, %2
  %.0 = phi i32 [ %3, %2 ], [ -1, %1 ]
  ret i32 %.0
}